; ModuleID = '28/872.c'
source_filename = "28/872.c"
target datalayout = "e-m:e-p270:32:32-p271:32:32-p272:64:64-i64:64-f80:128-n8:16:32:64-S128"
target triple = "x86_64-pc-linux-gnu"

@.str = private unnamed_addr constant [3 x i8] c"%d\00", align 1
@.str.1 = private unnamed_addr constant [4 x i8] c",%d\00", align 1

; Function Attrs: noinline nounwind uwtable
define dso_local i32 @main() #0 {
  %1 = alloca i32, align 4
  %2 = alloca [6000 x i8], align 16
  %3 = alloca [100 x i8], align 16
  %4 = alloca i32, align 4
  %5 = alloca i32, align 4
  %6 = alloca i32, align 4
  %7 = alloca i32, align 4
  %8 = alloca i32, align 4
  store i32 0, i32* %1, align 4
  store i32 0, i32* %4, align 4
  store i32 0, i32* %6, align 4
  %9 = getelementptr inbounds [6000 x i8], [6000 x i8]* %2, i64 0, i64 0
  %10 = call i32 (i8*, ...) bitcast (i32 (...)* @gets to i32 (i8*, ...)*)(i8* %9)
  %11 = getelementptr inbounds [6000 x i8], [6000 x i8]* %2, i64 0, i64 0
  %12 = call i64 @strlen(i8* %11) #3
  %13 = trunc i64 %12 to i32
  store i32 %13, i32* %8, align 4
  store i32 0, i32* %5, align 4
  br label %14

14:                                               ; preds = %96, %0
  %15 = load i32, i32* %5, align 4
  %16 = load i32, i32* %8, align 4
  %17 = add nsw i32 %16, 1
  %18 = icmp slt i32 %15, %17
  br i1 %18, label %19, label %99

19:                                               ; preds = %14
  %20 = load i32, i32* %5, align 4
  %21 = sext i32 %20 to i64
  %22 = getelementptr inbounds [6000 x i8], [6000 x i8]* %2, i64 0, i64 %21
  %23 = load i8, i8* %22, align 1
  %24 = sext i8 %23 to i32
  %25 = icmp ne i32 %24, 32
  br i1 %25, label %26, label %43

26:                                               ; preds = %19
  %27 = load i32, i32* %5, align 4
  %28 = sext i32 %27 to i64
  %29 = getelementptr inbounds [6000 x i8], [6000 x i8]* %2, i64 0, i64 %28
  %30 = load i8, i8* %29, align 1
  %31 = sext i8 %30 to i32
  %32 = icmp ne i32 %31, 0
  br i1 %32, label %33, label %43

33:                                               ; preds = %26
  %34 = load i32, i32* %5, align 4
  %35 = sext i32 %34 to i64
  %36 = getelementptr inbounds [6000 x i8], [6000 x i8]* %2, i64 0, i64 %35
  %37 = load i8, i8* %36, align 1
  %38 = load i32, i32* %4, align 4
  %39 = sext i32 %38 to i64
  %40 = getelementptr inbounds [100 x i8], [100 x i8]* %3, i64 0, i64 %39
  store i8 %37, i8* %40, align 1
  %41 = load i32, i32* %4, align 4
  %42 = add nsw i32 %41, 1
  store i32 %42, i32* %4, align 4
  br label %95

43:                                               ; preds = %26, %19
  %44 = load i32, i32* %6, align 4
  %45 = icmp eq i32 %44, 0
  br i1 %45, label %46, label %70

46:                                               ; preds = %43
  %47 = load i32, i32* %4, align 4
  %48 = sext i32 %47 to i64
  %49 = getelementptr inbounds [100 x i8], [100 x i8]* %3, i64 0, i64 %48
  store i8 0, i8* %49, align 1
  %50 = getelementptr inbounds [100 x i8], [100 x i8]* %3, i64 0, i64 0
  %51 = call i64 @strlen(i8* %50) #3
  %52 = call i32 (i8*, ...) @printf(i8* getelementptr inbounds ([3 x i8], [3 x i8]* @.str, i64 0, i64 0), i64 %51)
  store i32 0, i32* %4, align 4
  store i32 1, i32* %6, align 4
  %53 = load i32, i32* %5, align 4
  %54 = add nsw i32 %53, 1
  store i32 %54, i32* %7, align 4
  br label %55

55:                                               ; preds = %66, %46
  %56 = load i32, i32* %7, align 4
  %57 = sext i32 %56 to i64
  %58 = getelementptr inbounds [6000 x i8], [6000 x i8]* %2, i64 0, i64 %57
  %59 = load i8, i8* %58, align 1
  %60 = sext i8 %59 to i32
  %61 = icmp ne i32 %60, 32
  br i1 %61, label %62, label %65

62:                                               ; preds = %55
  %63 = load i32, i32* %7, align 4
  %64 = sub nsw i32 %63, 1
  store i32 %64, i32* %5, align 4
  br label %69

65:                                               ; preds = %55
  br label %66

66:                                               ; preds = %65
  %67 = load i32, i32* %7, align 4
  %68 = add nsw i32 %67, 1
  store i32 %68, i32* %7, align 4
  br label %55

69:                                               ; preds = %62
  br label %94

70:                                               ; preds = %43
  %71 = load i32, i32* %4, align 4
  %72 = sext i32 %71 to i64
  %73 = getelementptr inbounds [100 x i8], [100 x i8]* %3, i64 0, i64 %72
  store i8 0, i8* %73, align 1
  %74 = getelementptr inbounds [100 x i8], [100 x i8]* %3, i64 0, i64 0
  %75 = call i64 @strlen(i8* %74) #3
  %76 = call i32 (i8*, ...) @printf(i8* getelementptr inbounds ([4 x i8], [4 x i8]* @.str.1, i64 0, i64 0), i64 %75)
  store i32 0, i32* %4, align 4
  %77 = load i32, i32* %5, align 4
  %78 = add nsw i32 %77, 1
  store i32 %78, i32* %7, align 4
  br label %79

79:                                               ; preds = %90, %70
  %80 = load i32, i32* %7, align 4
  %81 = sext i32 %80 to i64
  %82 = getelementptr inbounds [6000 x i8], [6000 x i8]* %2, i64 0, i64 %81
  %83 = load i8, i8* %82, align 1
  %84 = sext i8 %83 to i32
  %85 = icmp ne i32 %84, 32
  br i1 %85, label %86, label %89

86:                                               ; preds = %79
  %87 = load i32, i32* %7, align 4
  %88 = sub nsw i32 %87, 1
  store i32 %88, i32* %5, align 4
  br label %93

89:                                               ; preds = %79
  br label %90

90:                                               ; preds = %89
  %91 = load i32, i32* %7, align 4
  %92 = add nsw i32 %91, 1
  store i32 %92, i32* %7, align 4
  br label %79

93:                                               ; preds = %86
  br label %94

94:                                               ; preds = %93, %69
  br label %95

95:                                               ; preds = %94, %33
  br label %96

96:                                               ; preds = %95
  %97 = load i32, i32* %5, align 4
  %98 = add nsw i32 %97, 1
  store i32 %98, i32* %5, align 4
  br label %14

99:                                               ; preds = %14
  ret i32 0
}

declare dso_local i32 @gets(...) #1

; Function Attrs: nounwind readonly
declare dso_local i64 @strlen(i8*) #2

declare dso_local i32 @printf(i8*, ...) #1


!llvm.module.flags = !{!0}
!llvm.ident = !{!1}

!0 = !{i32 1, !"wchar_size", i32 4}
!1 = !{!"clang version 10.0.0-4ubuntu1 "}
